target datalayout = "e-m:e-p270:32:32-p271:32:32-p272:64:64-i64:64-i128:128-f80:128-n8:16:32:64-S128"
target triple = "x86_64-pc-linux-gnu"

%struct.redisOptions = type { i32, i32, ptr, ptr, %union.anon, ptr, ptr, ptr, ptr }
%union.anon = type { %struct.anon.1 }
%struct.anon.1 = type { ptr, ptr, i32 }

; Function Attrs: nounwind uwtable
define ptr @redisConnect(ptr noundef %0, i32 noundef %1) #0 {
  %3 = alloca ptr, align 8
  %4 = alloca i32, align 4
  %5 = alloca %struct.redisOptions, align 8
  store ptr %0, ptr %3, align 8, !tbaa !26
  store i32 %1, ptr %4, align 4, !tbaa !29
  call void @llvm.lifetime.start.p0(i64 80, ptr %5) #10
  call void @llvm.memset.p0.i64(ptr align 8 %5, i8 0, i64 80, i1 false)
  br label %6

6:                                                ; preds = %2
  %7 = getelementptr inbounds nuw %struct.redisOptions, ptr %5, i32 0, i32 0
  store i32 0, ptr %7, align 8, !tbaa !76
  %8 = load ptr, ptr %3, align 8, !tbaa !26
  %9 = getelementptr inbounds nuw %struct.redisOptions, ptr %5, i32 0, i32 4
  %10 = getelementptr inbounds nuw %struct.anon.1, ptr %9, i32 0, i32 1
  store ptr %8, ptr %10, align 8, !tbaa !30
  %11 = load i32, ptr %4, align 4, !tbaa !29
  %12 = getelementptr inbounds nuw %struct.redisOptions, ptr %5, i32 0, i32 4
  %13 = getelementptr inbounds nuw %struct.anon.1, ptr %12, i32 0, i32 2
  store i32 %11, ptr %13, align 8, !tbaa !30
  br label %14

14:                                               ; preds = %6
  br label %15

15:                                               ; preds = %14
  %16 = call ptr @redisConnectWithOptions(ptr noundef %5)
  call void @llvm.lifetime.end.p0(i64 80, ptr %5) #10
  ret ptr %16
}