; Function Attrs: nounwind uwtable
define ptr @redisConnect(ptr noundef %0, i32 noundef %1) local_unnamed_addr #0 {
  %3 = alloca %struct.redisOptions, align 8
  call void @llvm.lifetime.start.p0(i64 80, ptr nonnull %3) #13
  %4 = getelementptr inbounds nuw i8, ptr %3, i64 32
  call void @llvm.memset.p0.i64(ptr noundef nonnull align 8 dereferenceable(80) %3, i8 0, i64 80, i1 false)
  store ptr %0, ptr %4, align 8, !tbaa !22
  %5 = getelementptr inbounds nuw i8, ptr %3, i64 40
  store i32 %1, ptr %5, align 8, !tbaa !22
  %6 = call ptr @redisConnectWithOptions(ptr noundef nonnull %3)
  call void @llvm.lifetime.end.p0(i64 80, ptr nonnull %3) #13
  ret ptr %6
}